target datalayout = "e-m:e-p270:32:32-p271:32:32-p272:64:64-i64:64-i128:128-f80:128-n8:16:32:64-S128"
target triple = "x86_64-pc-linux-gnu"

%struct.InputFile = type { ptr, ptr, i32 }
%struct.InputStream = type { ptr, ptr }

@selected_streams = internal global ptr null, align 8

; Function Attrs: nounwind uwtable
define internal i32 @show_streams(ptr noundef %0, ptr noundef %1) #0 {
  %3 = alloca ptr, align 8
  %4 = alloca ptr, align 8
  %5 = alloca ptr, align 8
  %6 = alloca i32, align 4
  %7 = alloca i32, align 4
  store ptr %0, ptr %3, align 8, !tbaa !28
  store ptr %1, ptr %4, align 8, !tbaa !158
  call void @llvm.lifetime.start.p0(i64 8, ptr %5) #14
  %8 = load ptr, ptr %4, align 8, !tbaa !158
  %9 = getelementptr inbounds nuw %struct.InputFile, ptr %8, i32 0, i32 0
  %10 = load ptr, ptr %9, align 8, !tbaa !83
  store ptr %10, ptr %5, align 8, !tbaa !160
  call void @llvm.lifetime.start.p0(i64 4, ptr %6) #14
  call void @llvm.lifetime.start.p0(i64 4, ptr %7) #14
  store i32 0, ptr %7, align 4, !tbaa !11
  %11 = load ptr, ptr %3, align 8, !tbaa !28
  call void @avtext_print_section_header(ptr noundef %11, ptr noundef null, i32 noundef 61)
  store i32 0, ptr %6, align 4, !tbaa !11
  br label %12

12:                                               ; preds = %41, %2
  %13 = load i32, ptr %6, align 4, !tbaa !11
  %14 = load ptr, ptr %4, align 8, !tbaa !158
  %15 = getelementptr inbounds nuw %struct.InputFile, ptr %14, i32 0, i32 2
  %16 = load i32, ptr %15, align 8, !tbaa !171
  %17 = icmp slt i32 %13, %16
  br i1 %17, label %18, label %44

18:                                               ; preds = %12
  %19 = load ptr, ptr @selected_streams, align 8, !tbaa !65
  %20 = load i32, ptr %6, align 4, !tbaa !11
  %21 = sext i32 %20 to i64
  %22 = getelementptr inbounds i32, ptr %19, i64 %21
  %23 = load i32, ptr %22, align 4, !tbaa !11
  %24 = icmp ne i32 %23, 0
  br i1 %24, label %25, label %40

25:                                               ; preds = %18
  %26 = load ptr, ptr %3, align 8, !tbaa !28
  %27 = load ptr, ptr %5, align 8, !tbaa !160
  %28 = load i32, ptr %6, align 4, !tbaa !11
  %29 = load ptr, ptr %4, align 8, !tbaa !158
  %30 = getelementptr inbounds nuw %struct.InputFile, ptr %29, i32 0, i32 1
  %31 = load ptr, ptr %30, align 8, !tbaa !170
  %32 = load i32, ptr %6, align 4, !tbaa !11
  %33 = sext i32 %32 to i64
  %34 = getelementptr inbounds %struct.InputStream, ptr %31, i64 %33
  %35 = call i32 @show_stream(ptr noundef %26, ptr noundef %27, i32 noundef %28, ptr noundef %34, i32 noundef 0)
  store i32 %35, ptr %7, align 4, !tbaa !11
  %36 = load i32, ptr %7, align 4, !tbaa !11
  %37 = icmp slt i32 %36, 0
  br i1 %37, label %38, label %39

38:                                               ; preds = %25
  br label %44

39:                                               ; preds = %25
  br label %40

40:                                               ; preds = %39, %18
  br label %41

41:                                               ; preds = %40
  %42 = load i32, ptr %6, align 4, !tbaa !11
  %43 = add nsw i32 %42, 1
  store i32 %43, ptr %6, align 4, !tbaa !11
  br label %12, !llvm.loop !195

44:                                               ; preds = %38, %12
  %45 = load ptr, ptr %3, align 8, !tbaa !28
  call void @avtext_print_section_footer(ptr noundef %45)
  %46 = load i32, ptr %7, align 4, !tbaa !11
  call void @llvm.lifetime.end.p0(i64 4, ptr %7) #14
  call void @llvm.lifetime.end.p0(i64 4, ptr %6) #14
  call void @llvm.lifetime.end.p0(i64 8, ptr %5) #14
  ret i32 %46
}