; Function Attrs: nounwind uwtable
define internal fastcc i32 @show_streams(ptr noundef %0, ptr noundef nonnull readonly captures(none) %1) unnamed_addr #0 {
  %3 = load ptr, ptr %1, align 8, !tbaa !87
  tail call void @avtext_print_section_header(ptr noundef %0, ptr noundef null, i32 noundef 61) #20
  %4 = getelementptr inbounds nuw i8, ptr %1, i64 8
  %5 = getelementptr inbounds nuw i8, ptr %1, i64 16
  %6 = load i32, ptr %5, align 8, !tbaa !98
  %7 = icmp sgt i32 %6, 0
  br i1 %7, label %.lr.ph.preheader, label %._crit_edge

.lr.ph.preheader:                                 ; preds = %2
  %.pre21 = load ptr, ptr @selected_streams, align 8, !tbaa !120
  br label %.lr.ph

.lr.ph:                                           ; preds = %.lr.ph.preheader, %18
  %8 = phi i32 [ %6, %.lr.ph.preheader ], [ %19, %18 ]
  %9 = phi ptr [ %.pre21, %.lr.ph.preheader ], [ %20, %18 ]
  %indvars.iv = phi i64 [ 0, %.lr.ph.preheader ], [ %indvars.iv.next, %18 ]
  %.017 = phi i32 [ 0, %.lr.ph.preheader ], [ %.2, %18 ]
  %10 = getelementptr inbounds nuw i32, ptr %9, i64 %indvars.iv
  %11 = load i32, ptr %10, align 4, !tbaa !11
  %.not = icmp eq i32 %11, 0
  br i1 %.not, label %18, label %12

12:                                               ; preds = %.lr.ph
  %13 = load ptr, ptr %4, align 8, !tbaa !97
  %14 = getelementptr inbounds nuw %struct.InputStream, ptr %13, i64 %indvars.iv
  %15 = trunc nuw nsw i64 %indvars.iv to i32
  %16 = tail call fastcc i32 @show_stream(ptr noundef %0, ptr noundef %3, i32 noundef %15, ptr noundef %14, i32 noundef 0)
  %17 = icmp slt i32 %16, 0
  br i1 %17, label %._crit_edge, label %._crit_edge22

._crit_edge22:                                    ; preds = %12
  %.pre = load ptr, ptr @selected_streams, align 8, !tbaa !120
  %.pre23 = load i32, ptr %5, align 8, !tbaa !98
  br label %18

18:                                               ; preds = %._crit_edge22, %.lr.ph
  %19 = phi i32 [ %.pre23, %._crit_edge22 ], [ %8, %.lr.ph ]
  %20 = phi ptr [ %.pre, %._crit_edge22 ], [ %9, %.lr.ph ]
  %.2 = phi i32 [ %16, %._crit_edge22 ], [ %.017, %.lr.ph ]
  %indvars.iv.next = add nuw nsw i64 %indvars.iv, 1
  %21 = sext i32 %19 to i64
  %22 = icmp slt i64 %indvars.iv.next, %21
  br i1 %22, label %.lr.ph, label %._crit_edge, !llvm.loop !253

._crit_edge:                                      ; preds = %18, %12, %2
  %.1 = phi i32 [ 0, %2 ], [ %16, %12 ], [ %.2, %18 ]
  tail call void @avtext_print_section_footer(ptr noundef %0) #20
  ret i32 %.1
}